target datalayout = "e-m:e-p270:32:32-p271:32:32-p272:64:64-i64:64-i128:128-f80:128-n8:16:32:64-S128"
target triple = "x86_64-pc-linux-gnu"

%struct.H5C_class_t = type { i32, ptr, i32, i32, ptr, ptr, ptr, ptr, ptr, ptr, ptr, ptr, ptr, ptr }
%struct.H5B2_hdr_t = type { %struct.H5C_cache_entry_t, %struct.H5B2_node_ptr_t, i8, i8, i32, i32, i16, i8, ptr, i64, i64, i64, i64, i8, i8, i8, ptr, ptr, ptr, ptr, ptr, ptr, ptr, i8, ptr, ptr, i64, ptr, ptr }
%struct.H5C_cache_entry_t = type { ptr, i64, i64, ptr, i8, ptr, i8, i8, i8, i8, i32, i8, i8, i8, i8, i8, i32, ptr, i32, i32, i32, i32, i32, i8, i8, ptr, ptr, ptr, ptr, ptr, ptr, i8, i32, i8, i64, ptr, i64, i64, i32, i8, i32, i32, i8, ptr, ptr, ptr }
%struct.H5B2_node_ptr_t = type { i64, i16, i64 }

@.str.1 = private unnamed_addr constant [101 x i8] c"generated/home/dtcxzyw/WorkSpace/Projects/compilers/llvm-opt-benchmark/bench/hdf5/hdf5/src/H5B2hdr.c\00", align 1
@H5E_BTREE_g = external global i64, align 8
@H5AC_BT2_HDR = external constant [1 x %struct.H5C_class_t], align 16
@H5E_CANTUNPROTECT_g = external global i64, align 8
@.str.22 = private unnamed_addr constant [53 x i8] c"unable to unprotect v2 B-tree header, address = %llu\00", align 1
@__func__.H5B2__hdr_unprotect = private unnamed_addr constant [20 x i8] c"H5B2__hdr_unprotect\00", align 1

; Function Attrs: nounwind uwtable
define i32 @H5B2__hdr_unprotect(ptr noundef %0, i32 noundef %1) #0 {
  %3 = alloca ptr, align 8
  %4 = alloca i32, align 4
  %5 = alloca i32, align 4
  %6 = alloca i8, align 1
  store ptr %0, ptr %3, align 8
  store i32 %1, ptr %4, align 4
  store i32 0, ptr %5, align 4
  store i8 0, ptr %6, align 1
  %7 = load ptr, ptr %3, align 8
  %8 = getelementptr inbounds %struct.H5B2_hdr_t, ptr %7, i32 0, i32 8
  %9 = load ptr, ptr %8, align 8
  %10 = load ptr, ptr %3, align 8
  %11 = getelementptr inbounds %struct.H5B2_hdr_t, ptr %10, i32 0, i32 9
  %12 = load i64, ptr %11, align 8
  %13 = load ptr, ptr %3, align 8
  %14 = load i32, ptr %4, align 4
  %15 = call i32 @H5AC_unprotect(ptr noundef %9, ptr noundef @H5AC_BT2_HDR, i64 noundef %12, ptr noundef %13, i32 noundef %14)
  %16 = icmp slt i32 %15, 0
  br i1 %16, label %17, label %35

17:                                               ; preds = %2
  br label %18

18:                                               ; preds = %17
  br label %19

19:                                               ; preds = %18
  br label %20

20:                                               ; preds = %19
  %21 = load i64, ptr @H5E_BTREE_g, align 8
  %22 = load i64, ptr @H5E_CANTUNPROTECT_g, align 8
  %23 = load ptr, ptr %3, align 8
  %24 = getelementptr inbounds %struct.H5B2_hdr_t, ptr %23, i32 0, i32 9
  %25 = load i64, ptr %24, align 8
  %26 = call i32 (ptr, ptr, i32, i64, i64, ptr, ...) @H5E_printf_stack(ptr noundef @.str.1, ptr noundef @__func__.H5B2__hdr_unprotect, i32 noundef 553, i64 noundef %21, i64 noundef %22, ptr noundef @.str.22, i64 noundef %25)
  br label %27

27:                                               ; preds = %20
  store i8 1, ptr %6, align 1
  %28 = load i8, ptr %6, align 1
  %29 = trunc i8 %28 to i1
  %30 = zext i1 %29 to i8
  store i8 %30, ptr %6, align 1
  br label %31

31:                                               ; preds = %27
  br label %32

32:                                               ; preds = %31
  store i32 -1, ptr %5, align 4
  br label %36

33:                                               ; No predecessors!
  br label %34

34:                                               ; preds = %33
  br label %35

35:                                               ; preds = %34, %2
  br label %36

36:                                               ; preds = %35, %32
  %37 = load i32, ptr %5, align 4
  ret i32 %37
}