; Function Attrs: nounwind uwtable
define range(i32 -1, 1) i32 @H5B2__hdr_unprotect(ptr noundef %0, i32 noundef %1) local_unnamed_addr #0 {
  %3 = getelementptr inbounds i8, ptr %0, i64 288
  %4 = load ptr, ptr %3, align 8
  %5 = getelementptr inbounds i8, ptr %0, i64 296
  %6 = load i64, ptr %5, align 8
  %7 = tail call i32 @H5AC_unprotect(ptr noundef %4, ptr noundef nonnull @H5AC_BT2_HDR, i64 noundef %6, ptr noundef %0, i32 noundef %1) #4
  %8 = icmp slt i32 %7, 0
  br i1 %8, label %9, label %14

9:                                                ; preds = %2
  %10 = load i64, ptr @H5E_BTREE_g, align 8
  %11 = load i64, ptr @H5E_CANTUNPROTECT_g, align 8
  %12 = load i64, ptr %5, align 8
  %13 = tail call i32 (ptr, ptr, i32, i64, i64, ptr, ...) @H5E_printf_stack(ptr noundef nonnull @.str.1, ptr noundef nonnull @__func__.H5B2__hdr_unprotect, i32 noundef 553, i64 noundef %10, i64 noundef %11, ptr noundef nonnull @.str.22, i64 noundef %12) #4
  br label %14

14:                                               ; preds = %2, %9
  %.0 = phi i32 [ -1, %9 ], [ 0, %2 ]
  ret i32 %.0
}